target datalayout = "e-m:e-p270:32:32-p271:32:32-p272:64:64-i64:64-i128:128-f80:128-n8:16:32:64-S128"
target triple = "x86_64-pc-linux-gnu"

; Function Attrs: nounwind null_pointer_is_valid sspstrong uwtable
define internal zeroext i1 @test_turnchannel_id(i16 noundef zeroext %0) #3 {
  %2 = alloca i1, align 1
  %3 = alloca i16, align 2
  store i16 %0, ptr %3, align 2
  %4 = load i16, ptr %3, align 2
  %5 = zext i16 %4 to i32
  %6 = and i32 %5, 16384
  %7 = icmp eq i32 %6, 16384
  br i1 %7, label %12, label %8

8:                                                ; preds = %1
  %9 = load i16, ptr %3, align 2
  %10 = zext i16 %9 to i32
  %11 = icmp eq i32 %10, 65296
  br i1 %11, label %12, label %13

12:                                               ; preds = %8, %1
  store i1 true, ptr %2, align 1
  br label %14

13:                                               ; preds = %8
  store i1 false, ptr %2, align 1
  br label %14

14:                                               ; preds = %13, %12
  %15 = load i1, ptr %2, align 1
  ret i1 %15
}

; Function Attrs: null_pointer_is_valid sspstrong uwtable
define internal i32 @get_turnchannel_message_len(ptr noundef %0, ptr noundef %1, i32 noundef %2, ptr noundef %3) #0 {
  %5 = alloca i32, align 4
  %6 = alloca ptr, align 8
  %7 = alloca ptr, align 8
  %8 = alloca i32, align 4
  %9 = alloca ptr, align 8
  %10 = alloca i16, align 2
  %11 = alloca i32, align 4
  store ptr %0, ptr %6, align 8
  store ptr %1, ptr %7, align 8
  store i32 %2, ptr %8, align 4
  store ptr %3, ptr %9, align 8
  call void @llvm.lifetime.start.p0(i64 2, ptr %10) #4
  %12 = load ptr, ptr %7, align 8
  %13 = call zeroext i16 @tvb_get_ntohs(ptr noundef %12, i32 noundef 0)
  store i16 %13, ptr %10, align 2
  %14 = load i16, ptr %10, align 2
  %15 = call zeroext i1 @test_turnchannel_id(i16 noundef zeroext %14)
  br i1 %15, label %19, label %16

16:                                               ; preds = %4
  %17 = load ptr, ptr %7, align 8
  %18 = call i32 @tvb_reported_length(ptr noundef %17)
  store i32 %18, ptr %5, align 4
  store i32 1, ptr %11, align 4
  br label %26

19:                                               ; preds = %4
  %20 = load ptr, ptr %7, align 8
  %21 = load i32, ptr %8, align 4
  %22 = add i32 %21, 2
  %23 = call zeroext i16 @tvb_get_ntohs(ptr noundef %20, i32 noundef %22)
  %24 = zext i16 %23 to i32
  %25 = add i32 %24, 4
  store i32 %25, ptr %5, align 4
  store i32 1, ptr %11, align 4
  br label %26

26:                                               ; preds = %19, %16
  call void @llvm.lifetime.end.p0(i64 2, ptr %10) #4
  %27 = load i32, ptr %5, align 4
  ret i32 %27
}