; Function Attrs: null_pointer_is_valid sspstrong uwtable
define internal i32 @get_turnchannel_message_len(ptr readnone captures(none) %0, ptr noundef %1, i32 noundef %2, ptr readnone captures(none) %3) #0 {
  %5 = tail call zeroext i16 @tvb_get_ntohs(ptr noundef %1, i32 noundef 0)
  %6 = and i16 %5, 16384
  %.not.i.not = icmp eq i16 %6, 0
  br i1 %.not.i.not, label %7, label %9

7:                                                ; preds = %4
  %8 = tail call i32 @tvb_reported_length(ptr noundef %1)
  br label %14

9:                                                ; preds = %4
  %10 = add i32 %2, 2
  %11 = tail call zeroext i16 @tvb_get_ntohs(ptr noundef %1, i32 noundef %10)
  %12 = zext i16 %11 to i32
  %13 = add nuw nsw i32 %12, 4
  br label %14

14:                                               ; preds = %9, %7
  %.0 = phi i32 [ %13, %9 ], [ %8, %7 ]
  ret i32 %.0
}